target datalayout = "e-m:e-p270:32:32-p271:32:32-p272:64:64-i64:64-i128:128-f80:128-n8:16:32:64-S128"
target triple = "x86_64-pc-linux-gnu"

%struct.WOLFSSL = type <{ ptr, ptr, ptr, ptr, [48 x i8], [48 x i8], ptr, ptr, ptr, ptr, ptr, ptr, ptr, ptr, ptr, ptr, ptr, ptr, ptr, i32, [4 x i8], %struct.WOLFSSL_CIPHER, ptr, %struct.Ciphers, %struct.Ciphers, [8 x i8], %struct.Buffers, ptr, ptr, %struct.WOLFSSL_ALERT_HISTORY, %struct.WOLFSSL_ALERT, i32, i32, i32, i32, i32, i32, i32, i16, [2 x i8], i32, i8, %struct.RecordLayerHeader, %struct.MsgsReceived, %struct.ProtocolVersion, %struct.ProtocolVersion, %struct.CipherSpecs, [2 x i8], %struct.Keys, %struct.Options, ptr, i8, i8, i16, [10 x i16], i8, i8, i16, i16, [38 x i8], i32, i32, [4 x i8], ptr, i8, i8, [6 x i8], ptr, ptr, i16, i8, i8, i32, i8, [3 x i8], i32, %struct.OneTimeAuth, ptr }>
%struct.WOLFSSL_CIPHER = type { i8, i8, ptr }
%struct.Ciphers = type { ptr, ptr, ptr, ptr, i8, i8 }
%struct.Buffers = type { %struct.bufferStatic, %struct.bufferStatic, %struct.WOLFSSL_BUFFER_INFO, %struct.WOLFSSL_BUFFER_INFO, %struct.WOLFSSL_BUFFER_INFO, %struct.WOLFSSL_BUFFER_INFO, i32, i32, i8, i8, i8, i8, %struct.WOLFSSL_BUFFER_INFO, %struct.WOLFSSL_BUFFER_INFO, %struct.WOLFSSL_BUFFER_INFO, %struct.WOLFSSL_BUFFER_INFO, ptr, ptr, ptr, i8, i8, i32, i32, ptr, i32, [1 x ptr] }
%struct.bufferStatic = type { [5 x i8], ptr, i32, i32, i32, i8, i8 }
%struct.WOLFSSL_BUFFER_INFO = type { ptr, i32 }
%struct.WOLFSSL_ALERT_HISTORY = type { %struct.WOLFSSL_ALERT, %struct.WOLFSSL_ALERT }
%struct.WOLFSSL_ALERT = type { i32, i32 }
%struct.RecordLayerHeader = type { i8, i8, i8, [2 x i8] }
%struct.MsgsReceived = type { i32 }
%struct.ProtocolVersion = type { i8, i8 }
%struct.CipherSpecs = type { i16, i16, i16, i16, i8, i8, i8, i8, i8, i8, i8, i8 }
%struct.Keys = type { [64 x i8], [64 x i8], [32 x i8], [32 x i8], [16 x i8], [16 x i8], [8 x i8], [12 x i8], [12 x i8], i32, i32, i32, i32, i32, i32, i8, i8, i8, i8 }
%struct.Options = type { i64, i64, i8, i8, i8, i8, i8, i8, i8, i8, i8, i8, i8, i8, i8, i8, i8, i8, i8, i8, i8, i8, i8, i16, i16, i16, i16, i16, i8 }
%struct.OneTimeAuth = type { ptr, i8 }
%struct.HS_Hashes = type { %struct.Hashes, %struct.Hashes, %struct.wc_Sha, %struct.wc_Md5, [8 x i8], %struct.wc_Sha256, %struct.wc_Sha512, %struct.wc_Sha512 }
%struct.Hashes = type { [16 x i8], [20 x i8], [32 x i8], [48 x i8], [64 x i8] }
%struct.wc_Sha = type { i32, i32, i32, [16 x i32], [5 x i32], ptr }
%struct.wc_Md5 = type { i32, i32, i32, [16 x i32], [4 x i32], ptr }
%struct.wc_Sha256 = type { [8 x i32], [16 x i32], i32, i32, i32, ptr, [8 x i8] }
%struct.wc_Sha512 = type { [8 x i64], [16 x i64], i32, i64, i64, ptr }

; Function Attrs: nounwind uwtable
define void @FreeHandshakeHashes(ptr noundef %0) #0 {
  %2 = alloca ptr, align 8
  %3 = alloca ptr, align 8
  store ptr %0, ptr %2, align 8, !tbaa !3
  %4 = load ptr, ptr %2, align 8, !tbaa !3
  %5 = getelementptr inbounds nuw %struct.WOLFSSL, ptr %4, i32 0, i32 6
  %6 = load ptr, ptr %5, align 16, !tbaa !195
  %7 = icmp ne ptr %6, null
  br i1 %7, label %8, label %41

8:                                                ; preds = %1
  %9 = load ptr, ptr %2, align 8, !tbaa !3
  %10 = getelementptr inbounds nuw %struct.WOLFSSL, ptr %9, i32 0, i32 6
  %11 = load ptr, ptr %10, align 16, !tbaa !195
  %12 = getelementptr inbounds nuw %struct.HS_Hashes, ptr %11, i32 0, i32 3
  call void @wc_Md5Free(ptr noundef %12)
  %13 = load ptr, ptr %2, align 8, !tbaa !3
  %14 = getelementptr inbounds nuw %struct.WOLFSSL, ptr %13, i32 0, i32 6
  %15 = load ptr, ptr %14, align 16, !tbaa !195
  %16 = getelementptr inbounds nuw %struct.HS_Hashes, ptr %15, i32 0, i32 2
  call void @wc_ShaFree(ptr noundef %16)
  %17 = load ptr, ptr %2, align 8, !tbaa !3
  %18 = getelementptr inbounds nuw %struct.WOLFSSL, ptr %17, i32 0, i32 6
  %19 = load ptr, ptr %18, align 16, !tbaa !195
  %20 = getelementptr inbounds nuw %struct.HS_Hashes, ptr %19, i32 0, i32 5
  call void @wc_Sha256Free(ptr noundef %20)
  %21 = load ptr, ptr %2, align 8, !tbaa !3
  %22 = getelementptr inbounds nuw %struct.WOLFSSL, ptr %21, i32 0, i32 6
  %23 = load ptr, ptr %22, align 16, !tbaa !195
  %24 = getelementptr inbounds nuw %struct.HS_Hashes, ptr %23, i32 0, i32 6
  call void @wc_Sha384Free(ptr noundef %24)
  %25 = load ptr, ptr %2, align 8, !tbaa !3
  %26 = getelementptr inbounds nuw %struct.WOLFSSL, ptr %25, i32 0, i32 6
  %27 = load ptr, ptr %26, align 16, !tbaa !195
  %28 = getelementptr inbounds nuw %struct.HS_Hashes, ptr %27, i32 0, i32 7
  call void @wc_Sha512Free(ptr noundef %28)
  br label %29

29:                                               ; preds = %8
  call void @llvm.lifetime.start.p0(i64 8, ptr %3) #9
  %30 = load ptr, ptr %2, align 8, !tbaa !3
  %31 = getelementptr inbounds nuw %struct.WOLFSSL, ptr %30, i32 0, i32 6
  %32 = load ptr, ptr %31, align 16, !tbaa !195
  store ptr %32, ptr %3, align 8, !tbaa !59
  %33 = load ptr, ptr %3, align 8, !tbaa !59
  %34 = icmp ne ptr %33, null
  br i1 %34, label %35, label %37

35:                                               ; preds = %29
  %36 = load ptr, ptr %3, align 8, !tbaa !59
  call void @wolfSSL_Free(ptr noundef %36)
  br label %37

37:                                               ; preds = %35, %29
  call void @llvm.lifetime.end.p0(i64 8, ptr %3) #9
  br label %38

38:                                               ; preds = %37
  %39 = load ptr, ptr %2, align 8, !tbaa !3
  %40 = getelementptr inbounds nuw %struct.WOLFSSL, ptr %39, i32 0, i32 6
  store ptr null, ptr %40, align 16, !tbaa !195
  br label %41

41:                                               ; preds = %38, %1
  ret void
}