; Function Attrs: nounwind uwtable
define void @FreeHandshakeHashes(ptr noundef captures(none) %0) local_unnamed_addr #5 {
  %2 = getelementptr inbounds nuw i8, ptr %0, i64 128
  %3 = load ptr, ptr %2, align 16, !tbaa !159
  %.not = icmp eq ptr %3, null
  br i1 %.not, label %17, label %4

4:                                                ; preds = %1
  %5 = getelementptr inbounds nuw i8, ptr %3, i64 464
  tail call void @wc_Md5Free(ptr noundef nonnull %5) #26
  %6 = load ptr, ptr %2, align 16, !tbaa !159
  %7 = getelementptr inbounds nuw i8, ptr %6, i64 360
  tail call void @wc_ShaFree(ptr noundef nonnull %7) #26
  %8 = load ptr, ptr %2, align 16, !tbaa !159
  %9 = getelementptr inbounds nuw i8, ptr %8, i64 576
  tail call void @wc_Sha256Free(ptr noundef nonnull %9) #26
  %10 = load ptr, ptr %2, align 16, !tbaa !159
  %11 = getelementptr inbounds nuw i8, ptr %10, i64 704
  tail call void @wc_Sha384Free(ptr noundef nonnull %11) #26
  %12 = load ptr, ptr %2, align 16, !tbaa !159
  %13 = getelementptr inbounds nuw i8, ptr %12, i64 928
  tail call void @wc_Sha512Free(ptr noundef nonnull %13) #26
  %14 = load ptr, ptr %2, align 16, !tbaa !159
  %.not11 = icmp eq ptr %14, null
  br i1 %.not11, label %16, label %15

15:                                               ; preds = %4
  tail call void @wolfSSL_Free(ptr noundef nonnull %14) #26
  br label %16

16:                                               ; preds = %15, %4
  store ptr null, ptr %2, align 16, !tbaa !159
  br label %17

17:                                               ; preds = %16, %1
  ret void
}